target datalayout = "e-m:e-p270:32:32-p271:32:32-p272:64:64-i64:64-i128:128-f80:128-n8:16:32:64-S128"
target triple = "x86_64-pc-linux-gnu"

%struct.err_state_st = type { [16 x %struct.err_error_st], i32, i32, ptr }
%struct.err_error_st = type { ptr, ptr, i32, i16, i8 }

; Function Attrs: nounwind uwtable
define internal void @err_clear_data(ptr noundef %0) #0 {
  %2 = alloca ptr, align 8
  store ptr %0, ptr %2, align 8, !tbaa !20
  %3 = load ptr, ptr %2, align 8, !tbaa !20
  %4 = getelementptr inbounds nuw %struct.err_error_st, ptr %3, i32 0, i32 4
  %5 = load i8, ptr %4, align 2, !tbaa !30
  %6 = zext i8 %5 to i32
  %7 = and i32 %6, 16
  %8 = icmp ne i32 %7, 0
  br i1 %8, label %9, label %13

9:                                                ; preds = %1
  %10 = load ptr, ptr %2, align 8, !tbaa !20
  %11 = getelementptr inbounds nuw %struct.err_error_st, ptr %10, i32 0, i32 1
  %12 = load ptr, ptr %11, align 8, !tbaa !29
  call void @free(ptr noundef %12) #12
  br label %13

13:                                               ; preds = %9, %1
  %14 = load ptr, ptr %2, align 8, !tbaa !20
  %15 = getelementptr inbounds nuw %struct.err_error_st, ptr %14, i32 0, i32 1
  store ptr null, ptr %15, align 8, !tbaa !29
  %16 = load ptr, ptr %2, align 8, !tbaa !20
  %17 = getelementptr inbounds nuw %struct.err_error_st, ptr %16, i32 0, i32 4
  %18 = load i8, ptr %17, align 2, !tbaa !30
  %19 = zext i8 %18 to i32
  %20 = and i32 %19, -17
  %21 = trunc i32 %20 to i8
  store i8 %21, ptr %17, align 2, !tbaa !30
  ret void
}

; Function Attrs: nounwind uwtable
define internal void @err_clear(ptr noundef %0) #0 {
  %2 = alloca ptr, align 8
  store ptr %0, ptr %2, align 8, !tbaa !20
  %3 = load ptr, ptr %2, align 8, !tbaa !20
  call void @err_clear_data(ptr noundef %3)
  %4 = load ptr, ptr %2, align 8, !tbaa !20
  call void @llvm.memset.p0.i64(ptr align 8 %4, i8 0, i64 24, i1 false)
  ret void
}

; Function Attrs: nounwind uwtable
define internal ptr @err_get_state() #0 {
  %1 = alloca ptr, align 8
  %2 = alloca ptr, align 8
  %3 = alloca i32, align 4
  call void @llvm.lifetime.start.p0(i64 8, ptr %2) #12
  %4 = call ptr @CRYPTO_get_thread_local(i32 noundef 0)
  store ptr %4, ptr %2, align 8, !tbaa !15
  %5 = load ptr, ptr %2, align 8, !tbaa !15
  %6 = icmp eq ptr %5, null
  br i1 %6, label %7, label %19

7:                                                ; preds = %0
  %8 = call noalias ptr @malloc(i64 noundef 400) #13
  store ptr %8, ptr %2, align 8, !tbaa !15
  %9 = load ptr, ptr %2, align 8, !tbaa !15
  %10 = icmp eq ptr %9, null
  br i1 %10, label %11, label %12

11:                                               ; preds = %7
  store ptr null, ptr %1, align 8
  store i32 1, ptr %3, align 4
  br label %21

12:                                               ; preds = %7
  %13 = load ptr, ptr %2, align 8, !tbaa !15
  call void @llvm.memset.p0.i64(ptr align 8 %13, i8 0, i64 400, i1 false)
  %14 = load ptr, ptr %2, align 8, !tbaa !15
  %15 = call i32 @CRYPTO_set_thread_local(i32 noundef 0, ptr noundef %14, ptr noundef @err_state_free)
  %16 = icmp ne i32 %15, 0
  br i1 %16, label %18, label %17

17:                                               ; preds = %12
  store ptr null, ptr %1, align 8
  store i32 1, ptr %3, align 4
  br label %21

18:                                               ; preds = %12
  br label %19

19:                                               ; preds = %18, %0
  %20 = load ptr, ptr %2, align 8, !tbaa !15
  store ptr %20, ptr %1, align 8
  store i32 1, ptr %3, align 4
  br label %21

21:                                               ; preds = %19, %17, %11
  call void @llvm.lifetime.end.p0(i64 8, ptr %2) #12
  %22 = load ptr, ptr %1, align 8
  ret ptr %22
}

; Function Attrs: nounwind uwtable
define hidden i32 @ERR_pop_to_mark() #0 {
  %1 = alloca i32, align 4
  %2 = alloca ptr, align 8
  %3 = alloca i32, align 4
  %4 = alloca ptr, align 8
  call void @llvm.lifetime.start.p0(i64 8, ptr %2) #12
  %5 = call ptr @err_get_state()
  store ptr %5, ptr %2, align 8, !tbaa !15
  %6 = load ptr, ptr %2, align 8, !tbaa !15
  %7 = icmp eq ptr %6, null
  br i1 %7, label %8, label %9

8:                                                ; preds = %0
  store i32 0, ptr %1, align 4
  store i32 1, ptr %3, align 4
  br label %58

9:                                                ; preds = %0
  br label %10

10:                                               ; preds = %56, %9
  %11 = load ptr, ptr %2, align 8, !tbaa !15
  %12 = getelementptr inbounds nuw %struct.err_state_st, ptr %11, i32 0, i32 2
  %13 = load i32, ptr %12, align 4, !tbaa !17
  %14 = load ptr, ptr %2, align 8, !tbaa !15
  %15 = getelementptr inbounds nuw %struct.err_state_st, ptr %14, i32 0, i32 1
  %16 = load i32, ptr %15, align 8, !tbaa !19
  %17 = icmp ne i32 %13, %16
  br i1 %17, label %18, label %57

18:                                               ; preds = %10
  call void @llvm.lifetime.start.p0(i64 8, ptr %4) #12
  %19 = load ptr, ptr %2, align 8, !tbaa !15
  %20 = getelementptr inbounds nuw %struct.err_state_st, ptr %19, i32 0, i32 0
  %21 = load ptr, ptr %2, align 8, !tbaa !15
  %22 = getelementptr inbounds nuw %struct.err_state_st, ptr %21, i32 0, i32 1
  %23 = load i32, ptr %22, align 8, !tbaa !19
  %24 = zext i32 %23 to i64
  %25 = getelementptr inbounds nuw [16 x %struct.err_error_st], ptr %20, i64 0, i64 %24
  store ptr %25, ptr %4, align 8, !tbaa !20
  %26 = load ptr, ptr %4, align 8, !tbaa !20
  %27 = getelementptr inbounds nuw %struct.err_error_st, ptr %26, i32 0, i32 4
  %28 = load i8, ptr %27, align 2, !tbaa !30
  %29 = zext i8 %28 to i32
  %30 = and i32 %29, 32
  %31 = icmp ne i32 %30, 0
  br i1 %31, label %32, label %39

32:                                               ; preds = %18
  %33 = load ptr, ptr %4, align 8, !tbaa !20
  %34 = getelementptr inbounds nuw %struct.err_error_st, ptr %33, i32 0, i32 4
  %35 = load i8, ptr %34, align 2, !tbaa !30
  %36 = zext i8 %35 to i32
  %37 = and i32 %36, -33
  %38 = trunc i32 %37 to i8
  store i8 %38, ptr %34, align 2, !tbaa !30
  store i32 1, ptr %1, align 4
  store i32 1, ptr %3, align 4
  br label %54

39:                                               ; preds = %18
  %40 = load ptr, ptr %4, align 8, !tbaa !20
  call void @err_clear(ptr noundef %40)
  %41 = load ptr, ptr %2, align 8, !tbaa !15
  %42 = getelementptr inbounds nuw %struct.err_state_st, ptr %41, i32 0, i32 1
  %43 = load i32, ptr %42, align 8, !tbaa !19
  %44 = icmp eq i32 %43, 0
  br i1 %44, label %45, label %48

45:                                               ; preds = %39
  %46 = load ptr, ptr %2, align 8, !tbaa !15
  %47 = getelementptr inbounds nuw %struct.err_state_st, ptr %46, i32 0, i32 1
  store i32 15, ptr %47, align 8, !tbaa !19
  br label %53

48:                                               ; preds = %39
  %49 = load ptr, ptr %2, align 8, !tbaa !15
  %50 = getelementptr inbounds nuw %struct.err_state_st, ptr %49, i32 0, i32 1
  %51 = load i32, ptr %50, align 8, !tbaa !19
  %52 = add i32 %51, -1
  store i32 %52, ptr %50, align 8, !tbaa !19
  br label %53

53:                                               ; preds = %48, %45
  store i32 0, ptr %3, align 4
  br label %54

54:                                               ; preds = %53, %32
  call void @llvm.lifetime.end.p0(i64 8, ptr %4) #12
  %55 = load i32, ptr %3, align 4
  switch i32 %55, label %58 [
    i32 0, label %56
  ]

56:                                               ; preds = %54
  br label %10, !llvm.loop !44

57:                                               ; preds = %10
  store i32 0, ptr %1, align 4
  store i32 1, ptr %3, align 4
  br label %58

58:                                               ; preds = %57, %54, %8
  call void @llvm.lifetime.end.p0(i64 8, ptr %2) #12
  %59 = load i32, ptr %1, align 4
  ret i32 %59
}