; Function Attrs: nounwind uwtable
define hidden range(i32 0, 2) i32 @ERR_pop_to_mark() local_unnamed_addr #0 {
  %1 = tail call ptr @CRYPTO_get_thread_local(i32 noundef 0) #17
  %2 = icmp eq ptr %1, null
  br i1 %2, label %3, label %err_get_state.exit

3:                                                ; preds = %0
  %calloc.i = tail call dereferenceable_or_null(400) ptr @calloc(i64 1, i64 400)
  %4 = icmp eq ptr %calloc.i, null
  br i1 %4, label %err_get_state.exit.thread, label %5

5:                                                ; preds = %3
  %6 = tail call i32 @CRYPTO_set_thread_local(i32 noundef 0, ptr noundef nonnull %calloc.i, ptr noundef nonnull @err_state_free) #17
  %.not.i = icmp eq i32 %6, 0
  br i1 %.not.i, label %err_get_state.exit.thread, label %err_get_state.exit

err_get_state.exit:                               ; preds = %5, %0
  %.06.i = phi ptr [ %1, %0 ], [ %calloc.i, %5 ]
  %7 = getelementptr inbounds nuw i8, ptr %.06.i, i64 388
  %8 = getelementptr inbounds nuw i8, ptr %.06.i, i64 384
  %9 = load i32, ptr %7, align 4, !tbaa !6
  %10 = load i32, ptr %8, align 8, !tbaa !12
  %.not19 = icmp eq i32 %9, %10
  br i1 %.not19, label %err_get_state.exit.thread, label %.lr.ph

.lr.ph:                                           ; preds = %err_get_state.exit, %24
  %11 = phi i32 [ %storemerge, %24 ], [ %10, %err_get_state.exit ]
  %12 = zext i32 %11 to i64
  %13 = getelementptr inbounds nuw [16 x %struct.err_error_st], ptr %.06.i, i64 0, i64 %12
  %14 = getelementptr inbounds nuw i8, ptr %13, i64 22
  %15 = load i8, ptr %14, align 2, !tbaa !17
  %16 = and i8 %15, 32
  %.not15 = icmp eq i8 %16, 0
  br i1 %.not15, label %19, label %.thread

.thread:                                          ; preds = %.lr.ph
  %17 = getelementptr inbounds nuw i8, ptr %13, i64 22
  %18 = and i8 %15, -33
  store i8 %18, ptr %17, align 2, !tbaa !17
  br label %err_get_state.exit.thread

19:                                               ; preds = %.lr.ph
  %20 = and i8 %15, 16
  %.not.i.i = icmp eq i8 %20, 0
  br i1 %.not.i.i, label %24, label %21

21:                                               ; preds = %19
  %22 = getelementptr inbounds nuw i8, ptr %13, i64 8
  %23 = load ptr, ptr %22, align 8, !tbaa !18
  tail call void @free(ptr noundef %23) #17
  br label %24

24:                                               ; preds = %21, %19
  tail call void @llvm.memset.p0.i64(ptr noundef nonnull align 8 dereferenceable(24) %13, i8 0, i64 24, i1 false)
  %25 = load i32, ptr %8, align 8, !tbaa !12
  %26 = icmp eq i32 %25, 0
  %27 = add i32 %25, -1
  %storemerge = select i1 %26, i32 15, i32 %27
  store i32 %storemerge, ptr %8, align 8, !tbaa !12
  %28 = load i32, ptr %7, align 4, !tbaa !6
  %.not = icmp eq i32 %28, %storemerge
  br i1 %.not, label %err_get_state.exit.thread, label %.lr.ph, !llvm.loop !32

err_get_state.exit.thread:                        ; preds = %24, %err_get_state.exit, %5, %3, %.thread
  %.0 = phi i32 [ 1, %.thread ], [ 0, %3 ], [ 0, %5 ], [ 0, %err_get_state.exit ], [ 0, %24 ]
  ret i32 %.0
}